; Function Attrs: mustprogress nofree norecurse nosync nounwind willreturn memory(read, inaccessiblemem: none) uwtable
define hidden noundef zeroext i1 @_ZNK5Block8containsEPK4Node(ptr nocapture noundef nonnull readonly align 8 dereferenceable(144) %0, ptr noundef readnone %1) local_unnamed_addr #3 align 2 {
  %3 = getelementptr inbounds i8, ptr %0, i64 40
  %4 = load i32, ptr %3, align 8
  %.not.i = icmp eq i32 %4, 0
  br i1 %.not.i, label %_ZNK9Node_List8containsEPK4Node.exit, label %.lr.ph.i

.lr.ph.i:                                         ; preds = %2
  %5 = getelementptr inbounds i8, ptr %0, i64 32
  %6 = load ptr, ptr %5, align 8
  %7 = zext i32 %4 to i64
  %8 = load ptr, ptr %6, align 8
  %9 = icmp eq ptr %8, %1
  br i1 %9, label %_ZNK9Node_List8containsEPK4Node.exit, label %.lr.ph

.lr.ph:                                           ; preds = %.lr.ph.i, %10
  %indvars.iv.i2 = phi i64 [ %indvars.iv.next.i, %10 ], [ 0, %.lr.ph.i ]
  %indvars.iv.next.i = add nuw nsw i64 %indvars.iv.i2, 1
  %exitcond.not.i = icmp eq i64 %indvars.iv.next.i, %7
  br i1 %exitcond.not.i, label %_ZNK9Node_List8containsEPK4Node.exit.loopexit, label %10, !llvm.loop !11

10:                                               ; preds = %.lr.ph
  %11 = getelementptr inbounds ptr, ptr %6, i64 %indvars.iv.next.i
  %12 = load ptr, ptr %11, align 8
  %13 = icmp eq ptr %12, %1
  br i1 %13, label %_ZNK9Node_List8containsEPK4Node.exit.loopexit, label %.lr.ph, !llvm.loop !11

_ZNK9Node_List8containsEPK4Node.exit.loopexit:    ; preds = %.lr.ph, %10
  %14 = icmp ult i64 %indvars.iv.next.i, %7
  br label %_ZNK9Node_List8containsEPK4Node.exit

_ZNK9Node_List8containsEPK4Node.exit:             ; preds = %_ZNK9Node_List8containsEPK4Node.exit.loopexit, %.lr.ph.i, %2
  %.lcssa.i = phi i1 [ false, %2 ], [ true, %.lr.ph.i ], [ %14, %_ZNK9Node_List8containsEPK4Node.exit.loopexit ]
  ret i1 %.lcssa.i
}